target datalayout = "e-m:e-p270:32:32-p271:32:32-p272:64:64-i64:64-i128:128-f80:128-n8:16:32:64-S128"
target triple = "x86_64-pc-linux-gnu"

%struct.Node = type { i32 }
%struct.JsonIsPredicate = type { i32, ptr, ptr, i32, i8, i32 }

; Function Attrs: inlinehint nounwind uwtable
define internal ptr @newNode(i64 noundef %0, i32 noundef %1) #2 {
  %3 = alloca i64, align 8
  %4 = alloca i32, align 4
  %5 = alloca ptr, align 8
  store i64 %0, ptr %3, align 8
  store i32 %1, ptr %4, align 4
  call void @llvm.lifetime.start.p0(i64 8, ptr %5) #6
  %6 = load i64, ptr %3, align 8
  %7 = call ptr @palloc0(i64 noundef %6)
  store ptr %7, ptr %5, align 8
  %8 = load i32, ptr %4, align 4
  %9 = load ptr, ptr %5, align 8
  %10 = getelementptr inbounds nuw %struct.Node, ptr %9, i32 0, i32 0
  store i32 %8, ptr %10, align 4
  %11 = load ptr, ptr %5, align 8
  call void @llvm.lifetime.end.p0(i64 8, ptr %5) #6
  ret ptr %11
}

; Function Attrs: nounwind uwtable
define dso_local ptr @makeJsonIsPredicate(ptr noundef %0, ptr noundef %1, i32 noundef %2, i1 noundef zeroext %3, i32 noundef %4) #0 {
  %6 = alloca ptr, align 8
  %7 = alloca ptr, align 8
  %8 = alloca i32, align 4
  %9 = alloca i8, align 1
  %10 = alloca i32, align 4
  %11 = alloca ptr, align 8
  store ptr %0, ptr %6, align 8
  store ptr %1, ptr %7, align 8
  store i32 %2, ptr %8, align 4
  %12 = zext i1 %3 to i8
  store i8 %12, ptr %9, align 1
  store i32 %4, ptr %10, align 4
  call void @llvm.lifetime.start.p0(i64 8, ptr %11) #6
  %13 = call ptr @newNode(i64 noundef 40, i32 noundef 46)
  store ptr %13, ptr %11, align 8
  %14 = load ptr, ptr %6, align 8
  %15 = load ptr, ptr %11, align 8
  %16 = getelementptr inbounds nuw %struct.JsonIsPredicate, ptr %15, i32 0, i32 1
  store ptr %14, ptr %16, align 8
  %17 = load ptr, ptr %7, align 8
  %18 = load ptr, ptr %11, align 8
  %19 = getelementptr inbounds nuw %struct.JsonIsPredicate, ptr %18, i32 0, i32 2
  store ptr %17, ptr %19, align 8
  %20 = load i32, ptr %8, align 4
  %21 = load ptr, ptr %11, align 8
  %22 = getelementptr inbounds nuw %struct.JsonIsPredicate, ptr %21, i32 0, i32 3
  store i32 %20, ptr %22, align 8
  %23 = load i8, ptr %9, align 1, !range !4, !noundef !5
  %24 = trunc i8 %23 to i1
  %25 = load ptr, ptr %11, align 8
  %26 = getelementptr inbounds nuw %struct.JsonIsPredicate, ptr %25, i32 0, i32 4
  %27 = zext i1 %24 to i8
  store i8 %27, ptr %26, align 4
  %28 = load i32, ptr %10, align 4
  %29 = load ptr, ptr %11, align 8
  %30 = getelementptr inbounds nuw %struct.JsonIsPredicate, ptr %29, i32 0, i32 5
  store i32 %28, ptr %30, align 8
  %31 = load ptr, ptr %11, align 8
  call void @llvm.lifetime.end.p0(i64 8, ptr %11) #6
  ret ptr %31
}