; Function Attrs: nounwind uwtable
define dso_local noundef ptr @makeJsonIsPredicate(ptr noundef %0, ptr noundef %1, i32 noundef %2, i1 noundef zeroext %3, i32 noundef %4) local_unnamed_addr #0 {
  %6 = zext i1 %3 to i8
  %7 = tail call noundef ptr @palloc0(i64 noundef 40) #7
  store i32 46, ptr %7, align 4
  %8 = getelementptr inbounds nuw i8, ptr %7, i64 8
  store ptr %0, ptr %8, align 8
  %9 = getelementptr inbounds nuw i8, ptr %7, i64 16
  store ptr %1, ptr %9, align 8
  %10 = getelementptr inbounds nuw i8, ptr %7, i64 24
  store i32 %2, ptr %10, align 8
  %11 = getelementptr inbounds nuw i8, ptr %7, i64 28
  store i8 %6, ptr %11, align 4
  %12 = getelementptr inbounds nuw i8, ptr %7, i64 32
  store i32 %4, ptr %12, align 8
  ret ptr %7
}